target datalayout = "e-m:e-p270:32:32-p271:32:32-p272:64:64-i64:64-i128:128-f80:128-n8:16:32:64-S128"
target triple = "x86_64-pc-linux-gnu"

%"class.marisa::grimoire::io::Reader" = type <{ ptr, i32, [4 x i8], ptr, i8, [7 x i8] }>

; Function Attrs: noinline noreturn nounwind uwtable
define linkonce_odr hidden void @__clang_call_terminate(ptr noundef %0) #5 comdat {
  %2 = call ptr @__cxa_begin_catch(ptr %0) #3
  call void @_ZSt9terminatev() #11
  unreachable
}

; Function Attrs: mustprogress nounwind uwtable
define void @_ZN6marisa8grimoire2io6ReaderD2Ev(ptr noundef nonnull align 8 dereferenceable(25) %0) unnamed_addr #4 align 2 personality ptr @__gxx_personality_v0 {
  %2 = alloca ptr, align 8
  store ptr %0, ptr %2, align 8, !tbaa !3
  %3 = load ptr, ptr %2, align 8
  %4 = getelementptr inbounds nuw %"class.marisa::grimoire::io::Reader", ptr %3, i32 0, i32 4
  %5 = load i8, ptr %4, align 8, !tbaa !16, !range !17, !noundef !18
  %6 = trunc i8 %5 to i1
  br i1 %6, label %7, label %12

7:                                                ; preds = %1
  %8 = getelementptr inbounds nuw %"class.marisa::grimoire::io::Reader", ptr %3, i32 0, i32 0
  %9 = load ptr, ptr %8, align 8, !tbaa !8
  %10 = invoke i32 @fclose(ptr noundef %9)
          to label %11 unwind label %13

11:                                               ; preds = %7
  br label %12

12:                                               ; preds = %11, %1
  ret void

13:                                               ; preds = %7
  %14 = landingpad { ptr, i32 }
          catch ptr null
  %15 = extractvalue { ptr, i32 } %14, 0
  call void @__clang_call_terminate(ptr %15) #11
  unreachable
}